target datalayout = "e-m:e-p270:32:32-p271:32:32-p272:64:64-i64:64-i128:128-f80:128-n8:16:32:64-S128"
target triple = "x86_64-pc-linux-gnu"

%struct.AVFilterLink = type { ptr, ptr, ptr, ptr, i32, i32, i32, i32, %struct.AVRational, i32, i32, i32, %struct.AVChannelLayout, %struct.AVRational, ptr, i32, %struct.AVFilterFormatsConfig, %struct.AVFilterFormatsConfig }
%struct.AVChannelLayout = type { i32, i32, %union.anon.1, ptr }
%union.anon.1 = type { i64 }
%struct.AVRational = type { i32, i32 }
%struct.AVFilterFormatsConfig = type { ptr, ptr, ptr, ptr, ptr }
%struct.AVFilterContext = type { ptr, ptr, ptr, ptr, ptr, i32, ptr, ptr, i32, ptr, ptr, i32, i32, ptr, ptr, ptr, ptr, i32, ptr, i32, i32 }
%struct.ChromaShiftContext = type { ptr, i32, i32, i32, i32, i32, i32, i32, i32, i32, i32, i32, i32, i32, i32, i32, [4 x i32], [4 x i32], [4 x i32], ptr, i32, [2 x ptr] }
%struct.AVFrame = type { [8 x ptr], [8 x i32], ptr, i32, i32, i32, i32, i32, %struct.AVRational, i64, i64, %struct.AVRational, i32, ptr, i32, i32, [8 x ptr], ptr, i32, ptr, i32, i32, i32, i32, i32, i32, i32, i64, ptr, i32, ptr, ptr, i64, i64, i64, i64, ptr, %struct.AVChannelLayout, i64 }

; Function Attrs: nounwind uwtable
define internal i32 @filter_frame(ptr noundef %0, ptr noundef %1) #1 {
  %3 = alloca i32, align 4
  %4 = alloca ptr, align 8
  %5 = alloca ptr, align 8
  %6 = alloca ptr, align 8
  %7 = alloca ptr, align 8
  %8 = alloca ptr, align 8
  %9 = alloca ptr, align 8
  %10 = alloca i32, align 4
  store ptr %0, ptr %4, align 8, !tbaa !4
  store ptr %1, ptr %5, align 8, !tbaa !9
  call void @llvm.lifetime.start.p0(i64 8, ptr %6) #6
  %11 = load ptr, ptr %4, align 8, !tbaa !4
  %12 = getelementptr inbounds nuw %struct.AVFilterLink, ptr %11, i32 0, i32 2
  %13 = load ptr, ptr %12, align 8, !tbaa !11
  store ptr %13, ptr %6, align 8, !tbaa !23
  call void @llvm.lifetime.start.p0(i64 8, ptr %7) #6
  %14 = load ptr, ptr %6, align 8, !tbaa !23
  %15 = getelementptr inbounds nuw %struct.AVFilterContext, ptr %14, i32 0, i32 7
  %16 = load ptr, ptr %15, align 8, !tbaa !24
  %17 = getelementptr inbounds ptr, ptr %16, i64 0
  %18 = load ptr, ptr %17, align 8, !tbaa !4
  store ptr %18, ptr %7, align 8, !tbaa !4
  call void @llvm.lifetime.start.p0(i64 8, ptr %8) #6
  %19 = load ptr, ptr %6, align 8, !tbaa !23
  %20 = getelementptr inbounds nuw %struct.AVFilterContext, ptr %19, i32 0, i32 9
  %21 = load ptr, ptr %20, align 8, !tbaa !34
  store ptr %21, ptr %8, align 8, !tbaa !35
  call void @llvm.lifetime.start.p0(i64 8, ptr %9) #6
  %22 = load ptr, ptr %7, align 8, !tbaa !4
  %23 = load ptr, ptr %7, align 8, !tbaa !4
  %24 = getelementptr inbounds nuw %struct.AVFilterLink, ptr %23, i32 0, i32 6
  %25 = load i32, ptr %24, align 8, !tbaa !37
  %26 = load ptr, ptr %7, align 8, !tbaa !4
  %27 = getelementptr inbounds nuw %struct.AVFilterLink, ptr %26, i32 0, i32 7
  %28 = load i32, ptr %27, align 4, !tbaa !38
  %29 = call ptr @ff_get_video_buffer(ptr noundef %22, i32 noundef %25, i32 noundef %28)
  store ptr %29, ptr %9, align 8, !tbaa !9
  %30 = load ptr, ptr %9, align 8, !tbaa !9
  %31 = icmp ne ptr %30, null
  br i1 %31, label %33, label %32

32:                                               ; preds = %2
  call void @av_frame_free(ptr noundef %5)
  store i32 -12, ptr %3, align 4
  store i32 1, ptr %10, align 4
  br label %137

33:                                               ; preds = %2
  %34 = load ptr, ptr %9, align 8, !tbaa !9
  %35 = load ptr, ptr %5, align 8, !tbaa !9
  %36 = call i32 @av_frame_copy_props(ptr noundef %34, ptr noundef %35)
  %37 = load ptr, ptr %5, align 8, !tbaa !9
  %38 = load ptr, ptr %8, align 8, !tbaa !35
  %39 = getelementptr inbounds nuw %struct.ChromaShiftContext, ptr %38, i32 0, i32 19
  store ptr %37, ptr %39, align 8, !tbaa !39
  %40 = load ptr, ptr %8, align 8, !tbaa !35
  %41 = getelementptr inbounds nuw %struct.ChromaShiftContext, ptr %40, i32 0, i32 20
  %42 = load i32, ptr %41, align 8, !tbaa !41
  %43 = icmp ne i32 %42, 0
  br i1 %43, label %69, label %44

44:                                               ; preds = %33
  %45 = load ptr, ptr %9, align 8, !tbaa !9
  %46 = getelementptr inbounds nuw %struct.AVFrame, ptr %45, i32 0, i32 0
  %47 = getelementptr inbounds [8 x ptr], ptr %46, i64 0, i64 0
  %48 = load ptr, ptr %47, align 8, !tbaa !42
  %49 = load ptr, ptr %9, align 8, !tbaa !9
  %50 = getelementptr inbounds nuw %struct.AVFrame, ptr %49, i32 0, i32 1
  %51 = getelementptr inbounds [8 x i32], ptr %50, i64 0, i64 0
  %52 = load i32, ptr %51, align 8, !tbaa !43
  %53 = load ptr, ptr %5, align 8, !tbaa !9
  %54 = getelementptr inbounds nuw %struct.AVFrame, ptr %53, i32 0, i32 0
  %55 = getelementptr inbounds [8 x ptr], ptr %54, i64 0, i64 0
  %56 = load ptr, ptr %55, align 8, !tbaa !42
  %57 = load ptr, ptr %5, align 8, !tbaa !9
  %58 = getelementptr inbounds nuw %struct.AVFrame, ptr %57, i32 0, i32 1
  %59 = getelementptr inbounds [8 x i32], ptr %58, i64 0, i64 0
  %60 = load i32, ptr %59, align 8, !tbaa !43
  %61 = load ptr, ptr %8, align 8, !tbaa !35
  %62 = getelementptr inbounds nuw %struct.ChromaShiftContext, ptr %61, i32 0, i32 18
  %63 = getelementptr inbounds [4 x i32], ptr %62, i64 0, i64 0
  %64 = load i32, ptr %63, align 4, !tbaa !43
  %65 = load ptr, ptr %8, align 8, !tbaa !35
  %66 = getelementptr inbounds nuw %struct.ChromaShiftContext, ptr %65, i32 0, i32 16
  %67 = getelementptr inbounds [4 x i32], ptr %66, i64 0, i64 0
  %68 = load i32, ptr %67, align 4, !tbaa !43
  call void @av_image_copy_plane(ptr noundef %48, i32 noundef %52, ptr noundef %56, i32 noundef %60, i32 noundef %64, i32 noundef %68)
  br label %69

69:                                               ; preds = %44, %33
  %70 = load ptr, ptr %6, align 8, !tbaa !23
  %71 = load ptr, ptr %8, align 8, !tbaa !35
  %72 = getelementptr inbounds nuw %struct.ChromaShiftContext, ptr %71, i32 0, i32 21
  %73 = load ptr, ptr %8, align 8, !tbaa !35
  %74 = getelementptr inbounds nuw %struct.ChromaShiftContext, ptr %73, i32 0, i32 13
  %75 = load i32, ptr %74, align 8, !tbaa !44
  %76 = sext i32 %75 to i64
  %77 = getelementptr inbounds [2 x ptr], ptr %72, i64 0, i64 %76
  %78 = load ptr, ptr %77, align 8, !tbaa !45
  %79 = load ptr, ptr %9, align 8, !tbaa !9
  %80 = load ptr, ptr %8, align 8, !tbaa !35
  %81 = getelementptr inbounds nuw %struct.ChromaShiftContext, ptr %80, i32 0, i32 16
  %82 = getelementptr inbounds [4 x i32], ptr %81, i64 0, i64 1
  %83 = load i32, ptr %82, align 4, !tbaa !43
  %84 = load ptr, ptr %8, align 8, !tbaa !35
  %85 = getelementptr inbounds nuw %struct.ChromaShiftContext, ptr %84, i32 0, i32 16
  %86 = getelementptr inbounds [4 x i32], ptr %85, i64 0, i64 2
  %87 = load i32, ptr %86, align 4, !tbaa !43
  %88 = icmp sgt i32 %83, %87
  br i1 %88, label %89, label %94

89:                                               ; preds = %69
  %90 = load ptr, ptr %8, align 8, !tbaa !35
  %91 = getelementptr inbounds nuw %struct.ChromaShiftContext, ptr %90, i32 0, i32 16
  %92 = getelementptr inbounds [4 x i32], ptr %91, i64 0, i64 2
  %93 = load i32, ptr %92, align 4, !tbaa !43
  br label %99

94:                                               ; preds = %69
  %95 = load ptr, ptr %8, align 8, !tbaa !35
  %96 = getelementptr inbounds nuw %struct.ChromaShiftContext, ptr %95, i32 0, i32 16
  %97 = getelementptr inbounds [4 x i32], ptr %96, i64 0, i64 1
  %98 = load i32, ptr %97, align 4, !tbaa !43
  br label %99

99:                                               ; preds = %94, %89
  %100 = phi i32 [ %93, %89 ], [ %98, %94 ]
  %101 = load ptr, ptr %6, align 8, !tbaa !23
  %102 = call i32 @ff_filter_get_nb_threads(ptr noundef %101) #7
  %103 = icmp sgt i32 %100, %102
  br i1 %103, label %104, label %107

104:                                              ; preds = %99
  %105 = load ptr, ptr %6, align 8, !tbaa !23
  %106 = call i32 @ff_filter_get_nb_threads(ptr noundef %105) #7
  br label %129

107:                                              ; preds = %99
  %108 = load ptr, ptr %8, align 8, !tbaa !35
  %109 = getelementptr inbounds nuw %struct.ChromaShiftContext, ptr %108, i32 0, i32 16
  %110 = getelementptr inbounds [4 x i32], ptr %109, i64 0, i64 1
  %111 = load i32, ptr %110, align 4, !tbaa !43
  %112 = load ptr, ptr %8, align 8, !tbaa !35
  %113 = getelementptr inbounds nuw %struct.ChromaShiftContext, ptr %112, i32 0, i32 16
  %114 = getelementptr inbounds [4 x i32], ptr %113, i64 0, i64 2
  %115 = load i32, ptr %114, align 4, !tbaa !43
  %116 = icmp sgt i32 %111, %115
  br i1 %116, label %117, label %122

117:                                              ; preds = %107
  %118 = load ptr, ptr %8, align 8, !tbaa !35
  %119 = getelementptr inbounds nuw %struct.ChromaShiftContext, ptr %118, i32 0, i32 16
  %120 = getelementptr inbounds [4 x i32], ptr %119, i64 0, i64 2
  %121 = load i32, ptr %120, align 4, !tbaa !43
  br label %127

122:                                              ; preds = %107
  %123 = load ptr, ptr %8, align 8, !tbaa !35
  %124 = getelementptr inbounds nuw %struct.ChromaShiftContext, ptr %123, i32 0, i32 16
  %125 = getelementptr inbounds [4 x i32], ptr %124, i64 0, i64 1
  %126 = load i32, ptr %125, align 4, !tbaa !43
  br label %127

127:                                              ; preds = %122, %117
  %128 = phi i32 [ %121, %117 ], [ %126, %122 ]
  br label %129

129:                                              ; preds = %127, %104
  %130 = phi i32 [ %106, %104 ], [ %128, %127 ]
  %131 = call i32 @ff_filter_execute(ptr noundef %70, ptr noundef %78, ptr noundef %79, ptr noundef null, i32 noundef %130)
  %132 = load ptr, ptr %8, align 8, !tbaa !35
  %133 = getelementptr inbounds nuw %struct.ChromaShiftContext, ptr %132, i32 0, i32 19
  store ptr null, ptr %133, align 8, !tbaa !39
  call void @av_frame_free(ptr noundef %5)
  %134 = load ptr, ptr %7, align 8, !tbaa !4
  %135 = load ptr, ptr %9, align 8, !tbaa !9
  %136 = call i32 @ff_filter_frame(ptr noundef %134, ptr noundef %135)
  store i32 %136, ptr %3, align 4
  store i32 1, ptr %10, align 4
  br label %137

137:                                              ; preds = %129, %32
  call void @llvm.lifetime.end.p0(i64 8, ptr %9) #6
  call void @llvm.lifetime.end.p0(i64 8, ptr %8) #6
  call void @llvm.lifetime.end.p0(i64 8, ptr %7) #6
  call void @llvm.lifetime.end.p0(i64 8, ptr %6) #6
  %138 = load i32, ptr %3, align 4
  ret i32 %138
}