; Function Attrs: nounwind uwtable
define internal i32 @filter_frame(ptr noundef readonly captures(none) %0, ptr noundef %1) #1 {
  %3 = alloca ptr, align 8
  store ptr %1, ptr %3, align 8, !tbaa !4
  %4 = getelementptr inbounds nuw i8, ptr %0, i64 16
  %5 = load ptr, ptr %4, align 8, !tbaa !9
  %6 = getelementptr inbounds nuw i8, ptr %5, i64 56
  %7 = load ptr, ptr %6, align 8, !tbaa !21
  %8 = load ptr, ptr %7, align 8, !tbaa !31
  %9 = getelementptr inbounds nuw i8, ptr %5, i64 72
  %10 = load ptr, ptr %9, align 8, !tbaa !33
  %11 = getelementptr inbounds nuw i8, ptr %8, i64 40
  %12 = load i32, ptr %11, align 8, !tbaa !34
  %13 = getelementptr inbounds nuw i8, ptr %8, i64 44
  %14 = load i32, ptr %13, align 4, !tbaa !35
  %15 = tail call ptr @ff_get_video_buffer(ptr noundef %8, i32 noundef %12, i32 noundef %14) #6
  %.not = icmp eq ptr %15, null
  br i1 %.not, label %16, label %17

16:                                               ; preds = %2
  call void @av_frame_free(ptr noundef nonnull %3) #6
  br label %47

17:                                               ; preds = %2
  %18 = tail call i32 @av_frame_copy_props(ptr noundef nonnull %15, ptr noundef %1) #6
  %19 = getelementptr inbounds nuw i8, ptr %10, i64 120
  store ptr %1, ptr %19, align 8, !tbaa !36
  %20 = getelementptr inbounds nuw i8, ptr %10, i64 128
  %21 = load i32, ptr %20, align 8, !tbaa !38
  %.not37 = icmp eq i32 %21, 0
  br i1 %.not37, label %22, label %33

22:                                               ; preds = %17
  %23 = load ptr, ptr %15, align 8, !tbaa !39
  %24 = getelementptr inbounds nuw i8, ptr %15, i64 64
  %25 = load i32, ptr %24, align 8, !tbaa !40
  %26 = load ptr, ptr %1, align 8, !tbaa !39
  %27 = getelementptr inbounds nuw i8, ptr %1, i64 64
  %28 = load i32, ptr %27, align 8, !tbaa !40
  %29 = getelementptr inbounds nuw i8, ptr %10, i64 100
  %30 = load i32, ptr %29, align 4, !tbaa !40
  %31 = getelementptr inbounds nuw i8, ptr %10, i64 68
  %32 = load i32, ptr %31, align 4, !tbaa !40
  tail call void @av_image_copy_plane(ptr noundef %23, i32 noundef %25, ptr noundef %26, i32 noundef %28, i32 noundef %30, i32 noundef %32) #6
  br label %33

33:                                               ; preds = %22, %17
  %34 = getelementptr inbounds nuw i8, ptr %10, i64 136
  %35 = getelementptr inbounds nuw i8, ptr %10, i64 56
  %36 = load i32, ptr %35, align 8, !tbaa !41
  %37 = sext i32 %36 to i64
  %38 = getelementptr inbounds [2 x ptr], ptr %34, i64 0, i64 %37
  %39 = load ptr, ptr %38, align 8, !tbaa !42
  %40 = getelementptr inbounds nuw i8, ptr %10, i64 72
  %41 = load i32, ptr %40, align 4, !tbaa !40
  %42 = getelementptr inbounds nuw i8, ptr %10, i64 76
  %43 = load i32, ptr %42, align 4, !tbaa !40
  %. = tail call i32 @llvm.smin.i32(i32 %41, i32 %43)
  %44 = tail call i32 @ff_filter_get_nb_threads(ptr noundef nonnull %5) #7
  %spec.select = tail call i32 @llvm.smin.i32(i32 %., i32 %44)
  %45 = tail call i32 @ff_filter_execute(ptr noundef nonnull %5, ptr noundef %39, ptr noundef nonnull %15, ptr noundef null, i32 noundef %spec.select) #6
  store ptr null, ptr %19, align 8, !tbaa !36
  call void @av_frame_free(ptr noundef nonnull %3) #6
  %46 = call i32 @ff_filter_frame(ptr noundef nonnull %8, ptr noundef nonnull %15) #6
  br label %47

47:                                               ; preds = %33, %16
  %.0 = phi i32 [ %46, %33 ], [ -12, %16 ]
  ret i32 %.0
}